(dp1
S'output'
p2
S"<type 'exceptions.IndexError'> list index out of range"
p3
sS'layer'
p4
S'/home/vaibhav/sucks/web2py/applications/project/views/default/approval.html'
p5
sS'code'
p6
S'response.write(\'<!DOCTYPE html>\\n<!--[if (gt IE 9)|!(IE)]><!--> <html class="no-js" lang="\', escape=False)\nresponse.write(T.accepted_language or \'en\')\nresponse.write(\'"> <!--<![endif]-->\\n<head>\\n\\t<meta charset="utf-8">\\n\\t<!-- www.phpied.com/conditional-comments-block-downloads/ -->\\n\\t<!-- Always force latest IE rendering engine\\n\\t (even in intranet) & Chrome Frame\\n\\t Remove this if you use the .htaccess -->\\n\\t <meta http-equiv="X-UA-Compatible" content="IE=edge\', escape=False)\nresponse.write(not request.is_local and \',chrome=1\' or \'\')\nresponse.write(\'">\\n\\t <!--  Mobile Viewport Fix\\n\\t  j.mp/mobileviewport & davidbcalhoun.com/2010/viewport-metatag\\n\\t  device-width: Occupy full width of the screen in its current orientation\\n\\t  initial-scale = 1.0 retains dimensions instead of zooming out if page height > device height\\n\\t  user-scalable = yes allows the user to zoom in -->\\n\\t  <meta name="viewport" content="width=device-width, initial-scale=1.0">\\n\\t  <title>\', escape=False)\nresponse.write(response.title or request.application)\nresponse.write(\'</title>\\n\\t  <!-- http://dev.w3.org/html5/markup/meta.name.html -->\\n\\t  <meta name="application-name" content="\', escape=False)\nresponse.write(request.application)\nresponse.write(\'">\\n\\t  <!-- Speaking of Google, don\\\'t forget to set your site up:\\n\\t   http://google.com/webmasters -->\\n\\t   <meta name="google-site-verification" content="">\\n\\t   <!-- include stylesheets -->\\n\\t   <link rel="stylesheet" href="\', escape=False)\nresponse.write(URL(\'static\',\'css/bootstrap.min.css\'))\nresponse.write(\'"/>\\n\\t   <link rel="stylesheet" href="\', escape=False)\nresponse.write(URL(\'static\',\'css/web2py-bootstrap3.css\'))\nresponse.write(\'"/>\\n\\t   <link rel="shortcut icon" href="\', escape=False)\nresponse.write(URL(\'static\',\'images/favicon.ico\'))\nresponse.write(\'" type="image/x-icon">\\n\\t   <link rel="apple-touch-icon" href="\', escape=False)\nresponse.write(URL(\'static\',\'images/favicon.png\'))\nresponse.write(\'">\\n\\t   <!-- All JavaScript at the bottom, except for Modernizr which enables\\n\\t\\tHTML5 elements & feature detects -->\\n\\t\\t<script src="\', escape=False)\nresponse.write(URL(\'static\',\'js/modernizr-2.8.3.min.js\'))\nresponse.write(\'"></script>\\n\\t\\t<!--[if lt IE 9]>\\n\\t  <script src="\', escape=False)\nresponse.write(URL(\'static\',\'js/respond-1.4.2.min.js\'))\nresponse.write(\'"></script>\\n\\t  <![endif]-->\\n\\t  <!-- Favicons -->\\n\\t  \', escape=False)\nresponse.write(\'<script type="text/javascript"><!--\\n    // These variables are used by the web2py_ajax_init function in web2py_ajax.js (which is loaded below).\\n    var w2p_ajax_confirm_message = "\', escape=False)\nresponse.write(T(\'Are you sure you want to delete this object?\'))\nresponse.write(\'";\\n    var w2p_ajax_disable_with_message = "\', escape=False)\nresponse.write(T(\'Working...\'))\nresponse.write(\'";\\n    var w2p_ajax_date_format = "\', escape=False)\nresponse.write(T(\'%Y-%m-%d\'))\nresponse.write(\'";\\n    var w2p_ajax_datetime_format = "\', escape=False)\nresponse.write(T(\'%Y-%m-%d %H:%M:%S\'))\nresponse.write(\'";\\n    var ajax_error_500 = \\\'\', escape=False)\nresponse.write(T.M(\'An error occured, please [[reload %s]] the page\') % URL(args=request.args, vars=request.get_vars))\nresponse.write("\'\\n    //--></script>\\n", escape=False)\nresponse.files.insert(0,URL(\'static\',\'js/jquery.js\'))\nresponse.files.insert(1,URL(\'static\',\'css/calendar.css\'))\nresponse.files.insert(2,URL(\'static\',\'js/calendar.js\'))\nresponse.files.insert(3,URL(\'static\',\'js/web2py.js\'))\nresponse.include_meta()\nresponse.include_files()\nresponse.write(\'\\n\', escape=False)\nresponse.write(\' <!-- this includes jquery.js, calendar.js/.css and web2py.js -->\\n\\t  \', escape=False)\nresponse.write(\'\\n\\t  \', escape=False)\n# using sidebars need to know what sidebar you want to use\nmc0 = \'col-md-12\'\nmc1 = \'col-md-9\'\nmc2 = \'col-md-6\'\nleft_sidebar_enabled = globals().get(\'left_sidebar_enabled\', False)\nright_sidebar_enabled = globals().get(\'right_sidebar_enabled\', False)\nmiddle_column = {0: mc0, 1: mc1, 2: mc2}[\n(left_sidebar_enabled and 1 or 0)+(right_sidebar_enabled and 1 or 0)]\nresponse.write(\'\\n</head>\\n<body>\\n\\t<!--[if lt IE 8]><p class="browserupgrade">You are using an <strong>outdated</strong> browser. Please <a href="http://browsehappy.com/">upgrade your browser</a> to improve your experience.</p><![endif]-->\\n\\t<div class="w2p_flash alert alert-dismissable">\', escape=False)\nresponse.write(response.flash or \'\')\nresponse.write(\'</div>\\n\\t<!-- Navbar ======================================= -->\\n\\t<nav class="navbar navbar-default navbar-fixed-top" role="navigation">\\n\\t\\t<div class="container-fluid">\\n\\t\\t\\t<div class="navbar-header">\\n\\t\\t\\t\\t<button type="button" class="navbar-toggle" data-toggle="collapse" data-target=".navbar-collapse">\\n\\t\\t\\t\\t\\t<span class="sr-only">Toggle navigation</span>\\n\\t\\t\\t\\t\\t<span class="icon-bar"></span>\\n\\t\\t\\t\\t\\t<span class="icon-bar"></span>\\n\\t\\t\\t\\t\\t<span class="icon-bar"></span>\\n\\t\\t\\t\\t</button>\\n\\t\\t\\t\\t\', escape=False)\nresponse.write(response.logo or \'\')\nresponse.write(\'\\n\\t\\t\\t</div>\\n\\t\\t\\t<div class="collapse navbar-collapse navbar-ex1-collapse">\\n\\t\\t\\t\\t<ul class="nav navbar-nav navbar-right">\\n\\t\\t\\t\\t\\t\', escape=False)\nif auth.is_logged_in():\n    response.write(\'\\n\\t\\t\\t\\t\\t\', escape=False)\n    response.write(\'auth\' in globals() and auth.navbar(\'Welcome\',mode=\'dropdown\') or \'\')\n    response.write(\'\\n\\t\\t\\t\\t\\t\', escape=False)\nelse:\n    response.write(\'\\n\\t\\t\\t\\t\\t<div id=\\\'alag\\\' >\\n\\t\\t\\t\\t\\t\\t\\n                            <button id="button2"  onClick="pop(\\\'reg\\\',\\\'login\\\',\\\'lost\\\')">Sign up</button>\\n                            <button id="button1"  onClick="pop(\\\'login\\\',\\\'reg\\\',\\\'lost\\\')">Login</button>\\n\\t\\t\\t\\t\\t\\t\\n\\t\\t\\t\\t\\t</div>\\n\\n\\t\\t\\t\\t\\t\', escape=False)\n    pass\nresponse.write(\'\\n\\t\\t\\t\\t</ul>\\n\\t\\t\\t\\t\', escape=False)\nif response.menu:\n    response.write(\'\\n\\t\\t\\t\\t\', escape=False)\n    response.write(MENU(response.menu, _class=\'nav navbar-nav\',li_class=\'dropdown\',ul_class=\'dropdown-menu\'))\n    response.write(\'\\n\\t\\t\\t\\t\', escape=False)\n    pass\nresponse.write(\'\\n\\t\\t\\t</div>\\n\\t\\t</div>\\n\\t</nav>\\n\\t<!-- Masthead ===================================== -->    \\n\\t\', escape=False)\nresponse.write(\'\\n\\t\', escape=False)\nresponse.write(\'\\n\\t<!-- Main ========================================= -->\\n\\t<!-- Begin page content -->\\n\\t<div class="container-fluid main-container">\\n\\t\\t\', escape=False)\nif left_sidebar_enabled:\n    response.write(\'\\n\\t\\t<div class="col-md-3 left-sidebar">\\n\\t\\t\\t\', escape=False)\n    response.write(\'\\n\\t\\t\\t<h3>Left Sidebar</h3>\\n\\t\\t\\t<p></p>\\n\\t\\t\\t\', escape=False)\n    response.write(\'\\n\\t\\t</div>\\n\\t\\t\', escape=False)\n    pass\nresponse.write(\'\\n\\n\\t\\t<div class="\', escape=False)\nresponse.write(middle_column)\nresponse.write(\'">\\n\\t\\t\\t\', escape=False)\nresponse.write(\'\\n\\t\\t\\t\', escape=False)\nresponse.write(\'\\n<link href="\', escape=False)\nresponse.write(URL(\'static\',\'css/home.css\'))\nresponse.write(\'" rel="stylesheet">\\n\', escape=False)\nresponse.write(msg)\nresponse.write(\'\\n\\n<div id="head1"><h1>Accomplish more, every day.</h1></div>\\n<div id="head2"><p>Millons of people rely on <b><i>Project Chaperon</i></b> to get things done...</p></div>\\n\\n<button id="approval">Click Here To Approve</button>\\n<h1>\', escape=False)\nresponse.write(request.args[-1])\nresponse.write(\'</h1>\\n\', escape=False)\nresponse.write(\'\\n\\t\\t\\t\', escape=False)\nresponse.write(\'\\n\\t\\t</div>\\n\\n\\t\\t\', escape=False)\nif right_sidebar_enabled:\n    response.write(\'\\n\\t\\t<div class="col-md-3">\\n\\t\\t\\t\', escape=False)\n    response.write(\'\\n\\t\\t\\t<h3>Right Sidebar</h3>\\n\\t\\t\\t<p></p>\\n\\t\\t\\t\', escape=False)\n    response.write(\'\\n\\t\\t</div>\\n\\t\\t\', escape=False)\n    pass\nresponse.write(\'\\n\\n\\t</div>\\n\\n\\t\', escape=False)\nresponse.write(\' <!-- this is default footer -->      \\n\\t\\n\\t\', escape=False)\nresponse.write(\'\\n\\t<!-- The javascript =============================== -->\\n\\t<script src="\', escape=False)\nresponse.write(URL(\'static\',\'js/bootstrap.min.js\'))\nresponse.write(\'"></script>\\n\\t<script src="\', escape=False)\nresponse.write(URL(\'static\',\'js/web2py-bootstrap3.js\'))\nresponse.write(\'"></script>\\n\\t\', escape=False)\nresponse.write(\'\\n\\t\', escape=False)\nif response.google_analytics_id:\n    response.write(\'\\n\\t<!-- Analytics ==================================== -->\\n\\t<script src="\', escape=False)\n    response.write(URL(\'static\',\'js/analytics.min.js\'))\n    response.write(\'"></script>\\n\\t<script type="text/javascript">\\nanalytics.initialize({\\n\\t\\\'Google Analytics\\\':{trackingId:\\\'\', escape=False)\n    response.write(response.google_analytics_id)\n    response.write("\'}\\n});\\n\\t</script>\\n\\t", escape=False)\n    pass\nresponse.write(\'\\n\\t<!-- Share ============================y============ -->\\n\\t<script src="\', escape=False)\nresponse.write(URL(\'static\',\'js/share.js\',vars=dict(static=URL(\'static\',\'images\'))))\nresponse.write(\'"></script>\\n</body>\\n</html>\\n\', escape=False)'
p7
sS'snapshot'
p8
(dp9
sS'traceback'
p10
S'Traceback (most recent call last):\n  File "/home/vaibhav/sucks/web2py/gluon/restricted.py", line 227, in restricted\n    exec ccode in environment\n  File "/home/vaibhav/sucks/web2py/applications/project/views/default/approval.html", line 85, in <module>\nIndexError: list index out of range\n'
p11
s.