(dp1
S'output'
p2
S"<type 'exceptions.NameError'> name 'auth_user' is not defined"
p3
sS'layer'
p4
S'/home/priyanshagrawal/web2py/applications/project/views/default/main.html'
p5
sS'code'
p6
S'response.write(\'<!DOCTYPE html>\\n<!--[if (gt IE 9)|!(IE)]><!--> <html class="no-js" lang="\', escape=False)\nresponse.write(T.accepted_language or \'en\')\nresponse.write(\'"> <!--<![endif]-->\\n<head>\\n\\t<meta charset="utf-8">\\n\\t<!-- www.phpied.com/conditional-comments-block-downloads/ -->\\n\\t<!-- Always force latest IE rendering engine\\n\\t (even in intranet) & Chrome Frame\\n\\t Remove this if you use the .htaccess -->\\n\\t <meta http-equiv="X-UA-Compatible" content="IE=edge\', escape=False)\nresponse.write(not request.is_local and \',chrome=1\' or \'\')\nresponse.write(\'">\\n\\t <!--  Mobile Viewport Fix\\n\\t  j.mp/mobileviewport & davidbcalhoun.com/2010/viewport-metatag\\n\\t  device-width: Occupy full width of the screen in its current orientation\\n\\t  initial-scale = 1.0 retains dimensions instead of zooming out if page height > device height\\n\\t  user-scalable = yes allows the user to zoom in -->\\n\\t  <meta name="viewport" content="width=device-width, initial-scale=1.0">\\n\\t  <title>\', escape=False)\nresponse.write(response.title or request.application)\nresponse.write(\'</title>\\n\\t  <!-- http://dev.w3.org/html5/markup/meta.name.html -->\\n\\t  <meta name="application-name" content="\', escape=False)\nresponse.write(request.application)\nresponse.write(\'">\\n\\t  <!-- Speaking of Google, don\\\'t forget to set your site up:\\n\\t   http://google.com/webmasters -->\\n\\t   <meta name="google-site-verification" content="">\\n\\t   <!-- include stylesheets -->\\n\\t   <link rel="stylesheet" href="\', escape=False)\nresponse.write(URL(\'static\',\'css/bootstrap.min.css\'))\nresponse.write(\'"/>\\n\\t   <link rel="stylesheet" href="\', escape=False)\nresponse.write(URL(\'static\',\'css/web2py-bootstrap3.css\'))\nresponse.write(\'"/>\\n\\t   <link rel="shortcut icon" href="\', escape=False)\nresponse.write(URL(\'static\',\'images/favicon.ico\'))\nresponse.write(\'" type="image/x-icon">\\n\\t   <link rel="apple-touch-icon" href="\', escape=False)\nresponse.write(URL(\'static\',\'images/favicon.png\'))\nresponse.write(\'">\\n\\t   <!-- All JavaScript at the bottom, except for Modernizr which enables\\n\\t\\tHTML5 elements & feature detects -->\\n\\t\\t<script src="\', escape=False)\nresponse.write(URL(\'static\',\'js/modernizr-2.8.3.min.js\'))\nresponse.write(\'"></script>\\n\\t\\t<!--[if lt IE 9]>\\n\\t  <script src="\', escape=False)\nresponse.write(URL(\'static\',\'js/respond-1.4.2.min.js\'))\nresponse.write(\'"></script>\\n\\t  <![endif]-->\\n\\t  <!-- Favicons -->\\n\\t  \', escape=False)\nresponse.write(\'<script type="text/javascript"><!--\\n    // These variables are used by the web2py_ajax_init function in web2py_ajax.js (which is loaded below).\\n    var w2p_ajax_confirm_message = "\', escape=False)\nresponse.write(T(\'Are you sure you want to delete this object?\'))\nresponse.write(\'";\\n    var w2p_ajax_disable_with_message = "\', escape=False)\nresponse.write(T(\'Working...\'))\nresponse.write(\'";\\n    var w2p_ajax_date_format = "\', escape=False)\nresponse.write(T(\'%Y-%m-%d\'))\nresponse.write(\'";\\n    var w2p_ajax_datetime_format = "\', escape=False)\nresponse.write(T(\'%Y-%m-%d %H:%M:%S\'))\nresponse.write(\'";\\n    var ajax_error_500 = \\\'\', escape=False)\nresponse.write(T.M(\'An error occured, please [[reload %s]] the page\') % URL(args=request.args, vars=request.get_vars))\nresponse.write("\'\\n    //--></script>\\n", escape=False)\nresponse.files.insert(0,URL(\'static\',\'js/jquery.js\'))\nresponse.files.insert(1,URL(\'static\',\'css/calendar.css\'))\nresponse.files.insert(2,URL(\'static\',\'js/calendar.js\'))\nresponse.files.insert(3,URL(\'static\',\'js/web2py.js\'))\nresponse.include_meta()\nresponse.include_files()\nresponse.write(\'\\n\', escape=False)\nresponse.write(\' <!-- this includes jquery.js, calendar.js/.css and web2py.js -->\\n\\t  \', escape=False)\nresponse.write(\'\\n\\t  \', escape=False)\n# using sidebars need to know what sidebar you want to use\nmc0 = \'col-md-12\'\nmc1 = \'col-md-9\'\nmc2 = \'col-md-6\'\nleft_sidebar_enabled = globals().get(\'left_sidebar_enabled\', False)\nright_sidebar_enabled = globals().get(\'right_sidebar_enabled\', False)\nmiddle_column = {0: mc0, 1: mc1, 2: mc2}[\n(left_sidebar_enabled and 1 or 0)+(right_sidebar_enabled and 1 or 0)]\nresponse.write(\'\\n</head>\\n<body>\\n\\t<!--[if lt IE 8]><p class="browserupgrade">You are using an <strong>outdated</strong> browser. Please <a href="http://browsehappy.com/">upgrade your browser</a> to improve your experience.</p><![endif]-->\\n\\t<div class="w2p_flash alert alert-dismissable">\', escape=False)\nresponse.write(response.flash or \'\')\nresponse.write(\'</div>\\n\\t<!-- Navbar ======================================= -->\\n\\t<nav class="navbar navbar-default navbar-fixed-top" role="navigation">\\n\\t\\t<div class="container-fluid">\\n\\t\\t\\t<div class="navbar-header">\\n\\t\\t\\t\\t<button type="button" class="navbar-toggle" data-toggle="collapse" data-target=".navbar-collapse">\\n\\t\\t\\t\\t\\t<span class="sr-only">Toggle navigation</span>\\n\\t\\t\\t\\t\\t<span class="icon-bar"></span>\\n\\t\\t\\t\\t\\t<span class="icon-bar"></span>\\n\\t\\t\\t\\t\\t<span class="icon-bar"></span>\\n\\t\\t\\t\\t</button>\\n\\t\\t\\t\\t\', escape=False)\nresponse.write(response.logo or \'\')\nresponse.write(\'\\n\\t\\t\\t</div>\\n\\t\\t\\t<div class="collapse navbar-collapse navbar-ex1-collapse">\\n\\t\\t\\t\\t<ul class="nav navbar-nav navbar-right">\\n\\t\\t\\t\\t\\t\', escape=False)\nif auth.is_logged_in():\n    response.write(\'\\n\\t\\t\\t\\t\\t\', escape=False)\n    response.write(\'auth\' in globals() and auth.navbar(\'Welcome\',mode=\'dropdown\') or \'\')\n    response.write(\'\\n\\t\\t\\t\\t\\t\', escape=False)\nelse:\n    response.write(\'\\n\\t\\t\\t\\t\\t<div id=\\\'alag\\\' >\\n\\t\\t\\t\\t\\t\\t\\n                            <button id="button2"  onClick="pop(\\\'reg\\\',\\\'login\\\',\\\'lost\\\')">Sign up</button>\\n                            <button id="button1"  onClick="pop(\\\'login\\\',\\\'reg\\\',\\\'lost\\\')">Login</button>\\n\\t\\t\\t\\t\\t\\t\\n\\t\\t\\t\\t\\t</div>\\n\\n\\t\\t\\t\\t\\t\', escape=False)\n    pass\nresponse.write(\'\\n\\t\\t\\t\\t</ul>\\n\\t\\t\\t\\t\', escape=False)\nif response.menu:\n    response.write(\'\\n\\t\\t\\t\\t\', escape=False)\n    response.write(MENU(response.menu, _class=\'nav navbar-nav\',li_class=\'dropdown\',ul_class=\'dropdown-menu\'))\n    response.write(\'\\n\\t\\t\\t\\t\', escape=False)\n    pass\nresponse.write(\'\\n\\t\\t\\t</div>\\n\\t\\t</div>\\n\\t</nav>\\n\\t<!-- Masthead ===================================== -->    \\n\\t\', escape=False)\nresponse.write(\'\\n\\t\', escape=False)\nresponse.write(\'\\n\\t<!-- Main ========================================= -->\\n\\t<!-- Begin page content -->\\n\\t<div class="container-fluid main-container">\\n\\t\\t\', escape=False)\nif left_sidebar_enabled:\n    response.write(\'\\n\\t\\t<div class="col-md-3 left-sidebar">\\n\\t\\t\\t\', escape=False)\n    response.write(\'\\n\\t\\t\\t<h3>Left Sidebar</h3>\\n\\t\\t\\t<p></p>\\n\\t\\t\\t\', escape=False)\n    response.write(\'\\n\\t\\t</div>\\n\\t\\t\', escape=False)\n    pass\nresponse.write(\'\\n\\n\\t\\t<div class="\', escape=False)\nresponse.write(middle_column)\nresponse.write(\'">\\n\\t\\t\\t\', escape=False)\nresponse.write(\'\\n\\t\\t\\t\', escape=False)\nresponse.write(\'\\n<link href="\', escape=False)\nresponse.write(URL(\'static\',\'css/main.css\'))\nresponse.write(\'" rel="stylesheet">\\n<script type="text/javascript">\\nfunction pop(div) {\\n\\tdocument.getElementById(div).style.display = \\\'block\\\';\\n}\\nfunction hide(div) {\\n\\tdocument.getElementById(div).style.display = \\\'none\\\';\\n}\\ndocument.onkeydown = function(evt) {\\n\\tevt = evt || window.event;\\n\\tif (evt.keyCode == 27) {\\n\\t\\thide(\\\'create_task\\\');\\n\\t}\\n};\\n</script>\\n\\n<select>\\n    \', escape=False)\nif auth_user.id>0:\n    response.write(\' \\n    \\n    <option value="volvo">\', escape=False)\n    response.write(auth_user.first_name)\n    response.write(\'</option>\\n      \', escape=False)\n    pass\nresponse.write(\'\\n</select>\\n\\n\\n\\n<div id="set">\\n\\t<button onClick="pop(\\\'create_task\\\')">Add a Task</button>\\n</div>\\n<div id=\\\'create_task\\\'>\\n\\t\', escape=False)\nresponse.write(form)\nresponse.write(\'\\n\\t<!--p>Title</p><input class=\\\'inputs\\\' id="name_param" name="name"/><br>\\n\\t <input class=\\\'inputs\\\' id="age_param" name="age"/-->\\n</div>\\n\\n<ul class="hello1">\\n\\t\', escape=False)\nfor task in tasks:\n    response.write(\'\\n\\t\', escape=False)\n    i=0\n    response.write(\'\\n\\t<li>\\n\\t\\t<div class="hello">\\n\\t\\t\\t<h3>\', escape=False)\n    response.write(task.title)\n    response.write(\'</h3>\\n\\t\\t\\t\', escape=False)\n    response.write(A(\'Add a Subtask\',_href=URL(\'default\',\'checklist\',args=[request.args(0),task.id]),_class="btn btn-primary"))\n    response.write(\'\\n            \\n            \\n\\t\\t\\t\', escape=False)\n    for subtask in subtasks:\n        if subtask.tid==task.id:\n            i=i+1\n            response.write(\'\\n\\t\\t\\t\', escape=False)\n            if subtask.status==1:\n                response.write(\'\\n\\t\\t\\t<div class="done" id="main_\', escape=False)\n                response.write(subtask.id)\n                response.write(\'">\\n\\t\\t\\t\', escape=False)\n            else:\n                response.write(\'\\n\\t\\t\\t<div class="todo" id="main_\', escape=False)\n                response.write(subtask.id)\n                response.write(\'">\\n\\t\\t\\t\\t\\t\', escape=False)\n                pass\n            response.write(\'\\n\\t\\t\\t\\t\\t<p>\', escape=False)\n            response.write(i)\n            response.write(\'.)\', escape=False)\n            response.write(subtask.description)\n            response.write("</p>\\n\\t\\t\\t\\t\\t<a onClick=\'funct(", escape=False)\n            response.write(subtask.id)\n            response.write(")\'>Delete</a>\\n\\t\\t\\t\\t\\t<a onClick=\'done(", escape=False)\n            response.write(subtask.id)\n            response.write(")\'>Done</a>\\n\\t\\t\\t\\t\\t <select>\\n\\t\\t\\t\\t\\t\\t", escape=False)\n            for others in tasks:\n                response.write(\'\\n\\t\\t\\t\\t\\t\\t\', escape=False)\n                if others.title != task.title:\n                    response.write("\\n\\t\\t\\t\\t\\t   \\t\\t<option onclick=\'move(", escape=False)\n                    response.write(subtask.id)\n                    response.write(\',\', escape=False)\n                    response.write(others.id)\n                    response.write(\',\', escape=False)\n                    response.write(task.id)\n                    response.write(")\'>", escape=False)\n                    response.write(others.title)\n                    response.write(\'</option>\\n\\t\\t\\t\\t\\t\\t\', escape=False)\n                    pass\n                response.write(\'\\n\\t\\t\\t\\t\\t\\t\', escape=False)\n                pass\n            response.write(\'\\n\\t\\t\\t\\t\\t </select> \\n\\t\\t\\t\\t</div>\\n\\t\\t\\t\\t\', escape=False)\n            pass\n        response.write(\'\\n\\t\\t\\t\\t\', escape=False)\n        pass\n    response.write(\'\\n\\t\\t\\t\\t<p>Created by.. \', escape=False)\n    response.write(task.created_by.first_name)\n    response.write(\' \', escape=False)\n    response.write(prettydate(task.created_on))\n    response.write(\'</p>\\t\\n\\t\\t\\t</div>\\n\\t</li>\\n\\t\', escape=False)\n    pass\nresponse.write(\'\\n</ul>\\n\\n<div id="notifications">\\n\\t<h1></h1>\\n</div>\\n<script>\\nfunction move(commid){\\n\\tvar hr = new XMLHttpRequest();\\n\\tvar url = "\', escape=False)\nresponse.write(URL(\'move\'))\nresponse.write(\'";\\n\\tvar vars = "commid="+commid\\n\\thr.open("POST",url, true);\\n\\thr.setRequestHeader("Content-type", "application/x-www-form-urlencoded");\\n\\thr.onreadystatechange = function() {\\n\\t\\tif(hr.readyState == 4 && hr.status == 200) {\\n\\t\\t\\tvar return_data = hr.responseText;\\n\\t\\t\\tvar element = document.getElementById(\\\'main_\\\' + commid);\\n\\t\\t\\telement.parentNode.removeChild(element);\\n\\t\\t}\\n\\t};\\n\\thr.send(vars); \\n}\\n\\n\\n\\nfunction funct(commid){\\n\\tvar hr = new XMLHttpRequest();\\n\\tvar url = "\', escape=False)\nresponse.write(URL(\'changeitall\'))\nresponse.write(\'";\\n\\t\\t// var url = "http://127.0.0.1:8000/login/default/changeitall";\\n\\t\\tvar vars = "commid="+commid\\n\\t\\thr.open("POST",url, true);\\n\\thr.setRequestHeader("Content-type", "application/x-www-form-urlencoded");\\n\\thr.onreadystatechange = function() {\\n\\t\\tif(hr.readyState == 4 && hr.status == 200) {\\n\\t\\t\\tvar return_data = hr.responseText;\\n\\t\\t\\tvar element = document.getElementById(\\\'main_\\\' + commid);\\n\\t\\t\\telement.parentNode.removeChild(element);\\n\\t\\t}\\n\\t};\\n\\thr.send(vars); \\n}\\n\\nfunction done(commid){\\n\\tvar hr = new XMLHttpRequest();\\n\\tvar url = "\', escape=False)\nresponse.write(URL(\'done\'))\nresponse.write(\'";\\n\\t//var url = "http://127.0.0.1:8000/login/default/done";\\n\\tvar vars = "commid="+commid\\n\\t\\thr.open("POST",url, true);\\n\\thr.setRequestHeader("Content-type", "application/x-www-form-urlencoded");\\n\\thr.onreadystatechange = function() {\\n\\t\\tconsole.log(hr.readyState)\\n\\t\\t\\tif(hr.readyState == 4 && hr.status == 200) {\\n\\t\\t\\t\\tvar return_data = hr.responseText;\\t\\t\\t\\t\\n\\t\\t\\t\\t$(\\\'#main_\\\' + commid + \\\' > p:nth-child(1)\\\').css(\\\'text-decoration\\\', \\\'line-through\\\');\\n\\t\\t\\t\\t// \\t\\t\\t\\t\\tvar element = document.getElementById(commid);\\n\\t\\t\\t\\t//\\t\\t\\t\\t\\tvar tochange=$($("#" + commid ).children[0])\\n\\t\\t\\t\\t//\\t\\t\\t\\t\\tvar change=element.children[0])\\n\\t\\t\\t\\t//\\t\\t\\t\\t\\t$($("#" + commid ).children[0]).wrap("<strike>");\\n\\t\\t\\t\\t//\\t\\t\\t\\t\\tvar pid = tochange.getElementsByTagName("p");\\n\\t\\t\\t\\t//\\t\\t\\t\\t\\tvar pid = tochange.firstChild;\\n\\t\\t\\t\\t//\\t\\t\\t\\t\\tpid.wrap("<strike>")\\n\\t\\t\\t\\t// \\t\\t\\t\\t\\tconsole.log(tochange)\\n\\t\\t\\t\\t// \\t\\t\\t\\t\\tconsole.log(change)\\n\\t\\t\\t\\t//\\t\\t\\t\\t\\telement.wrap("<strike>");\\n\\t\\t\\t}\\n\\t};\\n\\thr.send(vars); \\n}\\n</script>\\n\\n\\n\\n\\n\\n\\n\\n\\n\\n\\n\\n\\n\\n\\n\\n\\n\\n\\n\\n\\n\\n\\n\\n\\n\\n\\n\\n\\n\\n<!__\\nfunction removeitnow(commid){\\nvar element = document.getElementById(commid);\\nelement.parentNode.removeChild(element);\\n}-->\\n\', escape=False)\nresponse.write(\'\\n\\t\\t\\t\', escape=False)\nresponse.write(\'\\n\\t\\t</div>\\n\\n\\t\\t\', escape=False)\nif right_sidebar_enabled:\n    response.write(\'\\n\\t\\t<div class="col-md-3">\\n\\t\\t\\t\', escape=False)\n    response.write(\'\\n\\t\\t\\t<h3>Right Sidebar</h3>\\n\\t\\t\\t<p></p>\\n\\t\\t\\t\', escape=False)\n    response.write(\'\\n\\t\\t</div>\\n\\t\\t\', escape=False)\n    pass\nresponse.write(\'\\n\\n\\t</div>\\n\\n\\t\', escape=False)\nresponse.write(\' <!-- this is default footer -->      \\n\\t\\n\\t\', escape=False)\nresponse.write(\'\\n\\t<!-- The javascript =============================== -->\\n\\t<script src="\', escape=False)\nresponse.write(URL(\'static\',\'js/bootstrap.min.js\'))\nresponse.write(\'"></script>\\n\\t<script src="\', escape=False)\nresponse.write(URL(\'static\',\'js/web2py-bootstrap3.js\'))\nresponse.write(\'"></script>\\n\\t\', escape=False)\nresponse.write(\'\\n\\t\', escape=False)\nif response.google_analytics_id:\n    response.write(\'\\n\\t<!-- Analytics ==================================== -->\\n\\t<script src="\', escape=False)\n    response.write(URL(\'static\',\'js/analytics.min.js\'))\n    response.write(\'"></script>\\n\\t<script type="text/javascript">\\nanalytics.initialize({\\n\\t\\\'Google Analytics\\\':{trackingId:\\\'\', escape=False)\n    response.write(response.google_analytics_id)\n    response.write("\'}\\n});\\n\\t</script>\\n\\t", escape=False)\n    pass\nresponse.write(\'\\n\\t<!-- Share ============================y============ -->\\n\\t<script src="\', escape=False)\nresponse.write(URL(\'static\',\'js/share.js\',vars=dict(static=URL(\'static\',\'images\'))))\nresponse.write(\'"></script>\\n</body>\\n</html>\\n\', escape=False)'
p7
sS'snapshot'
p8
(dp9
S'exception'
p10
(dp11
S'__hash__'
p12
S"<method-wrapper '__hash__' of exceptions.NameError object>"
p13
sS'__setattr__'
p14
S"<method-wrapper '__setattr__' of exceptions.NameError object>"
p15
sS'__reduce_ex__'
p16
S'<built-in method __reduce_ex__ of exceptions.NameError object>'
p17
sS'__getslice__'
p18
S"<method-wrapper '__getslice__' of exceptions.NameError object>"
p19
sS'__getitem__'
p20
S"<method-wrapper '__getitem__' of exceptions.NameError object>"
p21
sS'__setstate__'
p22
S'<built-in method __setstate__ of exceptions.NameError object>'
p23
sS'args'
p24
S'("name \'auth_user\' is not defined",)'
p25
sS'__reduce__'
p26
S'<built-in method __reduce__ of exceptions.NameError object>'
p27
sS'__str__'
p28
S"<method-wrapper '__str__' of exceptions.NameError object>"
p29
sS'__format__'
p30
S'<built-in method __format__ of exceptions.NameError object>'
p31
sS'__getattribute__'
p32
S"<method-wrapper '__getattribute__' of exceptions.NameError object>"
p33
sS'__class__'
p34
S"<type 'exceptions.NameError'>"
p35
sS'__unicode__'
p36
S'<built-in method __unicode__ of exceptions.NameError object>'
p37
sS'__delattr__'
p38
S"<method-wrapper '__delattr__' of exceptions.NameError object>"
p39
sS'__subclasshook__'
p40
S'<built-in method __subclasshook__ of type object>'
p41
sS'__repr__'
p42
S"<method-wrapper '__repr__' of exceptions.NameError object>"
p43
sS'__dict__'
p44
S'{}'
p45
sS'__sizeof__'
p46
S'<built-in method __sizeof__ of exceptions.NameError object>'
p47
sS'__doc__'
p48
S"'Name not found globally.'"
p49
sS'__init__'
p50
S"<method-wrapper '__init__' of exceptions.NameError object>"
p51
sS'__new__'
p52
S'<built-in method __new__ of type object>'
p53
ssS'evalue'
p54
S"name 'auth_user' is not defined"
p55
sS'request'
p56
cgluon.html
XML_unpickle
p57
(S's\x7fl\x00\x00<div><table><tr><td style="font-weight:bold;vertical-align:top;">ajax</td><td style="vertical-align:top;">:</td><td><div>False</div></td></tr><tr><td style="font-weight:bold;vertical-align:top;">application</td><td style="vertical-align:top;">:</td><td><div>project</div></td></tr><tr><td style="font-weight:bold;vertical-align:top;">args</td><td style="vertical-align:top;">:</td><td><div><table><tr><td><div>2</div></td></tr></table></div></td></tr><tr><td style="font-weight:bold;vertical-align:top;">cid</td><td style="vertical-align:top;">:</td><td><div>None</div></td></tr><tr><td style="font-weight:bold;vertical-align:top;">client</td><td style="vertical-align:top;">:</td><td><div>127.0.0.1</div></td></tr><tr><td style="font-weight:bold;vertical-align:top;">controller</td><td style="vertical-align:top;">:</td><td><div>default</div></td></tr><tr><td style="font-weight:bold;vertical-align:top;">cookies</td><td style="vertical-align:top;">:</td><td><div><table><tr><td style="font-weight:bold;vertical-align:top;">session_id_aarogya</td><td style="vertical-align:top;">:</td><td><div>127.0.0.1-fa4ae4f8-9fdd-4dac-b213-7981c5d525b9<table><tr><td style="font-weight:bold;vertical-align:top;">comment</td><td style="vertical-align:top;">:</td><td><div></div></td></tr><tr><td style="font-weight:bold;vertical-align:top;">domain</td><td style="vertical-align:top;">:</td><td><div></div></td></tr><tr><td style="font-weight:bold;vertical-align:top;">expires</td><td style="vertical-align:top;">:</td><td><div></div></td></tr><tr><td style="font-weight:bold;vertical-align:top;">httponly</td><td style="vertical-align:top;">:</td><td><div></div></td></tr><tr><td style="font-weight:bold;vertical-align:top;">max-age</td><td style="vertical-align:top;">:</td><td><div></div></td></tr><tr><td style="font-weight:bold;vertical-align:top;">path</td><td style="vertical-align:top;">:</td><td><div></div></td></tr><tr><td style="font-weight:bold;vertical-align:top;">secure</td><td style="vertical-align:top;">:</td><td><div></div></td></tr><tr><td style="font-weight:bold;vertical-align:top;">version</td><td style="vertical-align:top;">:</td><td><div></div></td></tr></table></div></td></tr><tr><td style="font-weight:bold;vertical-align:top;">session_id_admin</td><td style="vertical-align:top;">:</td><td><div>127.0.0.1-b3cb90a3-eeb9-4075-a1b7-61043267e1be<table><tr><td style="font-weight:bold;vertical-align:top;">comment</td><td style="vertical-align:top;">:</td><td><div></div></td></tr><tr><td style="font-weight:bold;vertical-align:top;">domain</td><td style="vertical-align:top;">:</td><td><div></div></td></tr><tr><td style="font-weight:bold;vertical-align:top;">expires</td><td style="vertical-align:top;">:</td><td><div></div></td></tr><tr><td style="font-weight:bold;vertical-align:top;">httponly</td><td style="vertical-align:top;">:</td><td><div></div></td></tr><tr><td style="font-weight:bold;vertical-align:top;">max-age</td><td style="vertical-align:top;">:</td><td><div></div></td></tr><tr><td style="font-weight:bold;vertical-align:top;">path</td><td style="vertical-align:top;">:</td><td><div></div></td></tr><tr><td style="font-weight:bold;vertical-align:top;">secure</td><td style="vertical-align:top;">:</td><td><div></div></td></tr><tr><td style="font-weight:bold;vertical-align:top;">version</td><td style="vertical-align:top;">:</td><td><div></div></td></tr></table></div></td></tr><tr><td style="font-weight:bold;vertical-align:top;">session_id_login</td><td style="vertical-align:top;">:</td><td><div>127.0.0.1-ac5fabfb-3a35-4886-b172-4129ef655259<table><tr><td style="font-weight:bold;vertical-align:top;">comment</td><td style="vertical-align:top;">:</td><td><div></div></td></tr><tr><td style="font-weight:bold;vertical-align:top;">domain</td><td style="vertical-align:top;">:</td><td><div></div></td></tr><tr><td style="font-weight:bold;vertical-align:top;">expires</td><td style="vertical-align:top;">:</td><td><div></div></td></tr><tr><td style="font-weight:bold;vertical-align:top;">httponly</td><td style="vertical-align:top;">:</td><td><div></div></td></tr><tr><td style="font-weight:bold;vertical-align:top;">max-age</td><td style="vertical-align:top;">:</td><td><div></div></td></tr><tr><td style="font-weight:bold;vertical-align:top;">path</td><td style="vertical-align:top;">:</td><td><div></div></td></tr><tr><td style="font-weight:bold;vertical-align:top;">secure</td><td style="vertical-align:top;">:</td><td><div></div></td></tr><tr><td style="font-weight:bold;vertical-align:top;">version</td><td style="vertical-align:top;">:</td><td><div></div></td></tr></table></div></td></tr><tr><td style="font-weight:bold;vertical-align:top;">session_id_login3</td><td style="vertical-align:top;">:</td><td><div>127.0.0.1-6790a5ee-988a-4763-b478-4cab73197244<table><tr><td style="font-weight:bold;vertical-align:top;">comment</td><td style="vertical-align:top;">:</td><td><div></div></td></tr><tr><td style="font-weight:bold;vertical-align:top;">domain</td><td style="vertical-align:top;">:</td><td><div></div></td></tr><tr><td style="font-weight:bold;vertical-align:top;">expires</td><td style="vertical-align:top;">:</td><td><div></div></td></tr><tr><td style="font-weight:bold;vertical-align:top;">httponly</td><td style="vertical-align:top;">:</td><td><div></div></td></tr><tr><td style="font-weight:bold;vertical-align:top;">max-age</td><td style="vertical-align:top;">:</td><td><div></div></td></tr><tr><td style="font-weight:bold;vertical-align:top;">path</td><td style="vertical-align:top;">:</td><td><div></div></td></tr><tr><td style="font-weight:bold;vertical-align:top;">secure</td><td style="vertical-align:top;">:</td><td><div></div></td></tr><tr><td style="font-weight:bold;vertical-align:top;">version</td><td style="vertical-align:top;">:</td><td><div></div></td></tr></table></div></td></tr><tr><td style="font-weight:bold;vertical-align:top;">session_id_project</td><td style="vertical-align:top;">:</td><td><div>127.0.0.1-573b9481-3f70-457a-81bf-4e8d95c6b4a8<table><tr><td style="font-weight:bold;vertical-align:top;">comment</td><td style="vertical-align:top;">:</td><td><div></div></td></tr><tr><td style="font-weight:bold;vertical-align:top;">domain</td><td style="vertical-align:top;">:</td><td><div></div></td></tr><tr><td style="font-weight:bold;vertical-align:top;">expires</td><td style="vertical-align:top;">:</td><td><div></div></td></tr><tr><td style="font-weight:bold;vertical-align:top;">httponly</td><td style="vertical-align:top;">:</td><td><div></div></td></tr><tr><td style="font-weight:bold;vertical-align:top;">max-age</td><td style="vertical-align:top;">:</td><td><div></div></td></tr><tr><td style="font-weight:bold;vertical-align:top;">path</td><td style="vertical-align:top;">:</td><td><div></div></td></tr><tr><td style="font-weight:bold;vertical-align:top;">secure</td><td style="vertical-align:top;">:</td><td><div></div></td></tr><tr><td style="font-weight:bold;vertical-align:top;">version</td><td style="vertical-align:top;">:</td><td><div></div></td></tr></table></div></td></tr><tr><td style="font-weight:bold;vertical-align:top;">session_id_welcome</td><td style="vertical-align:top;">:</td><td><div>127.0.0.1-847744d8-ebd0-4b75-83a5-220a38053ba0<table><tr><td style="font-weight:bold;vertical-align:top;">comment</td><td style="vertical-align:top;">:</td><td><div></div></td></tr><tr><td style="font-weight:bold;vertical-align:top;">domain</td><td style="vertical-align:top;">:</td><td><div></div></td></tr><tr><td style="font-weight:bold;vertical-align:top;">expires</td><td style="vertical-align:top;">:</td><td><div></div></td></tr><tr><td style="font-weight:bold;vertical-align:top;">httponly</td><td style="vertical-align:top;">:</td><td><div></div></td></tr><tr><td style="font-weight:bold;vertical-align:top;">max-age</td><td style="vertical-align:top;">:</td><td><div></div></td></tr><tr><td style="font-weight:bold;vertical-align:top;">path</td><td style="vertical-align:top;">:</td><td><div></div></td></tr><tr><td style="font-weight:bold;vertical-align:top;">secure</td><td style="vertical-align:top;">:</td><td><div></div></td></tr><tr><td style="font-weight:bold;vertical-align:top;">version</td><td style="vertical-align:top;">:</td><td><div></div></td></tr></table></div></td></tr></table></div></td></tr><tr><td style="font-weight:bold;vertical-align:top;">env</td><td style="vertical-align:top;">:</td><td><div><table><tr><td style="font-weight:bold;vertical-align:top;">HTTP_ACCEPT</td><td style="vertical-align:top;">:</td><td><div>text/html,application/xhtml+xml,application/xml;q=0.9,*/*;q=0.8</div></td></tr><tr><td style="font-weight:bold;vertical-align:top;">HTTP_ACCEPT_ENCODING</td><td style="vertical-align:top;">:</td><td><div>gzip, deflate</div></td></tr><tr><td style="font-weight:bold;vertical-align:top;">HTTP_ACCEPT_LANGUAGE</td><td style="vertical-align:top;">:</td><td><div>en-US,en;q=0.5</div></td></tr><tr><td style="font-weight:bold;vertical-align:top;">HTTP_CACHE_CONTROL</td><td style="vertical-align:top;">:</td><td><div>max-age=0</div></td></tr><tr><td style="font-weight:bold;vertical-align:top;">HTTP_CONNECTION</td><td style="vertical-align:top;">:</td><td><div>keep-alive</div></td></tr><tr><td style="font-weight:bold;vertical-align:top;">HTTP_COOKIE</td><td style="vertical-align:top;">:</td><td><div>session_id_welcome=127.0.0.1-847744d8-ebd0-4b75-83a5-220a38053ba0; session_id_admin=127.0.0.1-b3cb90a3-eeb9-4075-a1b7-61043267e1be; session_id_project=127.0.0.1-573b9481-3f70-457a-81bf-4e8d95c6b4a8; session_id_login3=127.0.0.1-6790a5ee-988a-4763-b478-4cab73197244; session_id_aarogya=127.0.0.1-fa4ae4f8-9fdd-4dac-b213-7981c5d525b9; session_id_login=127.0.0.1-ac5fabfb-3a35-4886-b172-4129ef655259</div></td></tr><tr><td style="font-weight:bold;vertical-align:top;">HTTP_HOST</td><td style="vertical-align:top;">:</td><td><div>127.0.0.1:8000</div></td></tr><tr><td style="font-weight:bold;vertical-align:top;">HTTP_REFERER</td><td style="vertical-align:top;">:</td><td><div>http://127.0.0.1:8000/project/default/home</div></td></tr><tr><td style="font-weight:bold;vertical-align:top;">HTTP_USER_AGENT</td><td style="vertical-align:top;">:</td><td><div>Mozilla/5.0 (X11; Fedora; Linux x86_64; rv:45.0) Gecko/20100101 Firefox/45.0</div></td></tr><tr><td style="font-weight:bold;vertical-align:top;">PATH_INFO</td><td style="vertical-align:top;">:</td><td><div>/project/default/main/2</div></td></tr><tr><td style="font-weight:bold;vertical-align:top;">QUERY_STRING</td><td style="vertical-align:top;">:</td><td><div></div></td></tr><tr><td style="font-weight:bold;vertical-align:top;">REMOTE_ADDR</td><td style="vertical-align:top;">:</td><td><div>127.0.0.1</div></td></tr><tr><td style="font-weight:bold;vertical-align:top;">REMOTE_PORT</td><td style="vertical-align:top;">:</td><td><div>58964</div></td></tr><tr><td style="font-weight:bold;vertical-align:top;">REQUEST_METHOD</td><td style="vertical-align:top;">:</td><td><div>GET</div></td></tr><tr><td style="font-weight:bold;vertical-align:top;">SCRIPT_NAME</td><td style="vertical-align:top;">:</td><td><div></div></td></tr><tr><td style="font-weight:bold;vertical-align:top;">SERVER_NAME</td><td style="vertical-align:top;">:</td><td><div>localhost.localdomain</div></td></tr><tr><td style="font-weight:bold;vertical-align:top;">SERVER_PORT</td><td style="vertical-align:top;">:</td><td><div>8000</div></td></tr><tr><td style="font-weight:bold;vertical-align:top;">SERVER_PROTOCOL</td><td style="vertical-align:top;">:</td><td><div>HTTP/1.1</div></td></tr><tr><td style="font-weight:bold;vertical-align:top;">SERVER_SOFTWARE</td><td style="vertical-align:top;">:</td><td><div>Rocket 1.2.6</div></td></tr><tr><td style="font-weight:bold;vertical-align:top;">app_folders</td><td style="vertical-align:top;">:</td><td><div>set([&#x27;/home/priyanshagrawal/web2py/applications/login3/&#x27;, &#x27;/home/priyanshagrawal/web2py/applications/Aarogya/&#x27;, &#x27;/home/priyanshagrawal/web2py/applications/welcome/&#x27;, &#x27;/home/priyanshagrawal/web2py/applications/login/&#x27;, &#x27;/home/priyanshagrawal/web2py/applications/project/&#x27;, &#x27;/home/priyanshagrawal/web2py/applications/admin/&#x27;])</div></td></tr><tr><td style="font-weight:bold;vertical-align:top;">applications_parent</td><td style="vertical-align:top;">:</td><td><div>/home/priyanshagrawal/web2py</div></td></tr><tr><td style="font-weight:bold;vertical-align:top;">cmd_args</td><td style="vertical-align:top;">:</td><td><div><table></table></div></td></tr><tr><td style="font-weight:bold;vertical-align:top;">cmd_options</td><td style="vertical-align:top;">:</td><td><div>&lt;Values at 0x7f622dec48c0: {&#x27;verbose&#x27;: False, &#x27;ip&#x27;: &#x27;127.0.0.1&#x27;, &#x27;debuglevel&#x27;: 30, &#x27;with_scheduler&#x27;: False, &#x27;shutdown_timeout&#x27;: 5, &#x27;taskbar&#x27;: False, &#x27;with_coverage&#x27;: False, &#x27;pid_filename&#x27;: &#x27;httpserver.pid&#x27;, &#x27;maxthreads&#x27;: None, &#x27;softcron&#x27;: False, &#x27;server_name&#x27;: &#x27;localhost.localdomain&#x27;, &#x27;bpython&#x27;: False, &#x27;nogui&#x27;: False, &#x27;port&#x27;: 8000, &#x27;print_errors&#x27;: False, &#x27;extcron&#x27;: False, &#x27;runcron&#x27;: False, &#x27;run_system_tests&#x27;: False, &#x27;test&#x27;: None, &#x27;folder&#x27;: &#x27;/home/priyanshagrawal/web2py&#x27;, &#x27;config&#x27;: &#x27;&#x27;, &#x27;minthreads&#x27;: None, &#x27;shell&#x27;: None, &#x27;run&#x27;: &#x27;&#x27;, &#x27;log_filename&#x27;: &#x27;httpserver.log&#x27;, &#x27;profiler_dir&#x27;: None, &#x27;args&#x27;: [&#x27;&#x27;], &#x27;socket_timeout&#x27;: 5, &#x27;ssl_ca_certificate&#x27;: None, &#x27;scheduler&#x27;: None, &#x27;interfaces&#x27;: None, &#x27;ssl_private_key&#x27;: &#x27;&#x27;, &#x27;gae&#x27;: None, &#x27;password&#x27;: &#x27;******&#x27;, &#x27;request_queue_size&#x27;: 5, &#x27;ssl_certificate&#x27;: &#x27;&#x27;, &#x27;cronjob&#x27;: False, &#x27;numthreads&#x27;: None, &#x27;quiet&#x27;: False, &#x27;import_models&#x27;: False, &#x27;timeout&#x27;: 10, &#x27;plain&#x27;: False, &#x27;nobanner&#x27;: False}&gt;</div></td></tr><tr><td style="font-weight:bold;vertical-align:top;">db_sessions</td><td style="vertical-align:top;">:</td><td><div>set([])</div></td></tr><tr><td style="font-weight:bold;vertical-align:top;">debugging</td><td style="vertical-align:top;">:</td><td><div>True</div></td></tr><tr><td style="font-weight:bold;vertical-align:top;">gluon_parent</td><td style="vertical-align:top;">:</td><td><div>/home/priyanshagrawal/web2py</div></td></tr><tr><td style="font-weight:bold;vertical-align:top;">http_accept</td><td style="vertical-align:top;">:</td><td><div>text/html,application/xhtml+xml,application/xml;q=0.9,*/*;q=0.8</div></td></tr><tr><td style="font-weight:bold;vertical-align:top;">http_accept_encoding</td><td style="vertical-align:top;">:</td><td><div>gzip, deflate</div></td></tr><tr><td style="font-weight:bold;vertical-align:top;">http_accept_language</td><td style="vertical-align:top;">:</td><td><div>en-US,en;q=0.5</div></td></tr><tr><td style="font-weight:bold;vertical-align:top;">http_cache_control</td><td style="vertical-align:top;">:</td><td><div>max-age=0</div></td></tr><tr><td style="font-weight:bold;vertical-align:top;">http_connection</td><td style="vertical-align:top;">:</td><td><div>keep-alive</div></td></tr><tr><td style="font-weight:bold;vertical-align:top;">http_cookie</td><td style="vertical-align:top;">:</td><td><div>session_id_welcome=127.0.0.1-847744d8-ebd0-4b75-83a5-220a38053ba0; session_id_admin=127.0.0.1-b3cb90a3-eeb9-4075-a1b7-61043267e1be; session_id_project=127.0.0.1-573b9481-3f70-457a-81bf-4e8d95c6b4a8; session_id_login3=127.0.0.1-6790a5ee-988a-4763-b478-4cab73197244; session_id_aarogya=127.0.0.1-fa4ae4f8-9fdd-4dac-b213-7981c5d525b9; session_id_login=127.0.0.1-ac5fabfb-3a35-4886-b172-4129ef655259</div></td></tr><tr><td style="font-weight:bold;vertical-align:top;">http_host</td><td style="vertical-align:top;">:</td><td><div>127.0.0.1:8000</div></td></tr><tr><td style="font-weight:bold;vertical-align:top;">http_referer</td><td style="vertical-align:top;">:</td><td><div>http://127.0.0.1:8000/project/default/home</div></td></tr><tr><td style="font-weight:bold;vertical-align:top;">http_user_agent</td><td style="vertical-align:top;">:</td><td><div>Mozilla/5.0 (X11; Fedora; Linux x86_64; rv:45.0) Gecko/20100101 Firefox/45.0</div></td></tr><tr><td style="font-weight:bold;vertical-align:top;">is_jython</td><td style="vertical-align:top;">:</td><td><div>False</div></td></tr><tr><td style="font-weight:bold;vertical-align:top;">is_pypy</td><td style="vertical-align:top;">:</td><td><div>False</div></td></tr><tr><td style="font-weight:bold;vertical-align:top;">is_source</td><td style="vertical-align:top;">:</td><td><div>True</div></td></tr><tr><td style="font-weight:bold;vertical-align:top;">local_hosts</td><td style="vertical-align:top;">:</td><td><div><table><tr><td><div>::1</div></td></tr><tr><td><div>::ffff:127.0.0.1</div></td></tr><tr><td><div>127.0.0.1</div></td></tr><tr><td><div>localhost.localdomain</div></td></tr></table></div></td></tr><tr><td style="font-weight:bold;vertical-align:top;">path_info</td><td style="vertical-align:top;">:</td><td><div>/project/default/main/2</div></td></tr><tr><td style="font-weight:bold;vertical-align:top;">query_string</td><td style="vertical-align:top;">:</td><td><div></div></td></tr><tr><td style="font-weight:bold;vertical-align:top;">remote_addr</td><td style="vertical-align:top;">:</td><td><div>127.0.0.1</div></td></tr><tr><td style="font-weight:bold;vertical-align:top;">remote_port</td><td style="vertical-align:top;">:</td><td><div>58964</div></td></tr><tr><td style="font-weight:bold;vertical-align:top;">request_method</td><td style="vertical-align:top;">:</td><td><div>GET</div></td></tr><tr><td style="font-weight:bold;vertical-align:top;">request_uri</td><td style="vertical-align:top;">:</td><td><div>/project/default/main/2</div></td></tr><tr><td style="font-weight:bold;vertical-align:top;">script_name</td><td style="vertical-align:top;">:</td><td><div></div></td></tr><tr><td style="font-weight:bold;vertical-align:top;">server_name</td><td style="vertical-align:top;">:</td><td><div>localhost.localdomain</div></td></tr><tr><td style="font-weight:bold;vertical-align:top;">server_port</td><td style="vertical-align:top;">:</td><td><div>8000</div></td></tr><tr><td style="font-weight:bold;vertical-align:top;">server_protocol</td><td style="vertical-align:top;">:</td><td><div>HTTP/1.1</div></td></tr><tr><td style="font-weight:bold;vertical-align:top;">server_software</td><td style="vertical-align:top;">:</td><td><div>Rocket 1.2.6</div></td></tr><tr><td style="font-weight:bold;vertical-align:top;">web2py_path</td><td style="vertical-align:top;">:</td><td><div>/home/priyanshagrawal/web2py</div></td></tr><tr><td style="font-weight:bold;vertical-align:top;">web2py_version</td><td style="vertical-align:top;">:</td><td><div>2.14.3-stable+timestamp.2016.03.26.23.02.02</div></td></tr><tr><td style="font-weight:bold;vertical-align:top;">wsgi.errors</td><td style="vertical-align:top;">:</td><td><div>&lt;open file &#x27;&lt;stderr&gt;&#x27;, mode &#x27;w&#x27; at 0x7f623cba11e0&gt;</div></td></tr><tr><td style="font-weight:bold;vertical-align:top;">wsgi.file_wrapper</td><td style="vertical-align:top;">:</td><td><div>&lt;class wsgiref.util.FileWrapper at 0x7f622df59f58&gt;</div></td></tr><tr><td style="font-weight:bold;vertical-align:top;">wsgi.input</td><td style="vertical-align:top;">:</td><td><div>&lt;socket._fileobject object at 0x7f61fd7beed0&gt;</div></td></tr><tr><td style="font-weight:bold;vertical-align:top;">wsgi.multiprocess</td><td style="vertical-align:top;">:</td><td><div>False</div></td></tr><tr><td style="font-weight:bold;vertical-align:top;">wsgi.multithread</td><td style="vertical-align:top;">:</td><td><div>True</div></td></tr><tr><td style="font-weight:bold;vertical-align:top;">wsgi.run_once</td><td style="vertical-align:top;">:</td><td><div>False</div></td></tr><tr><td style="font-weight:bold;vertical-align:top;">wsgi.url_scheme</td><td style="vertical-align:top;">:</td><td><div>http</div></td></tr><tr><td style="font-weight:bold;vertical-align:top;">wsgi.version</td><td style="vertical-align:top;">:</td><td><div><table><tr><td><div>1</div></td></tr><tr><td><div>0</div></td></tr></table></div></td></tr><tr><td style="font-weight:bold;vertical-align:top;">wsgi_errors</td><td style="vertical-align:top;">:</td><td><div>&lt;open file &#x27;&lt;stderr&gt;&#x27;, mode &#x27;w&#x27; at 0x7f623cba11e0&gt;</div></td></tr><tr><td style="font-weight:bold;vertical-align:top;">wsgi_file_wrapper</td><td style="vertical-align:top;">:</td><td><div>&lt;class wsgiref.util.FileWrapper at 0x7f622df59f58&gt;</div></td></tr><tr><td style="font-weight:bold;vertical-align:top;">wsgi_input</td><td style="vertical-align:top;">:</td><td><div>&lt;socket._fileobject object at 0x7f61fd7beed0&gt;</div></td></tr><tr><td style="font-weight:bold;vertical-align:top;">wsgi_multiprocess</td><td style="vertical-align:top;">:</td><td><div>False</div></td></tr><tr><td style="font-weight:bold;vertical-align:top;">wsgi_multithread</td><td style="vertical-align:top;">:</td><td><div>True</div></td></tr><tr><td style="font-weight:bold;vertical-align:top;">wsgi_run_once</td><td style="vertical-align:top;">:</td><td><div>False</div></td></tr><tr><td style="font-weight:bold;vertical-align:top;">wsgi_url_scheme</td><td style="vertical-align:top;">:</td><td><div>http</div></td></tr><tr><td style="font-weight:bold;vertical-align:top;">wsgi_version</td><td style="vertical-align:top;">:</td><td><div><table><tr><td><div>1</div></td></tr><tr><td><div>0</div></td></tr></table></div></td></tr></table></div></td></tr><tr><td style="font-weight:bold;vertical-align:top;">extension</td><td style="vertical-align:top;">:</td><td><div>html</div></td></tr><tr><td style="font-weight:bold;vertical-align:top;">folder</td><td style="vertical-align:top;">:</td><td><div>/home/priyanshagrawal/web2py/applications/project/</div></td></tr><tr><td style="font-weight:bold;vertical-align:top;">function</td><td style="vertical-align:top;">:</td><td><div>main</div></td></tr><tr><td style="font-weight:bold;vertical-align:top;">global_settings</td><td style="vertical-align:top;">:</td><td><div><table><tr><td style="font-weight:bold;vertical-align:top;">app_folders</td><td style="vertical-align:top;">:</td><td><div>set([&#x27;/home/priyanshagrawal/web2py/applications/login3/&#x27;, &#x27;/home/priyanshagrawal/web2py/applications/Aarogya/&#x27;, &#x27;/home/priyanshagrawal/web2py/applications/welcome/&#x27;, &#x27;/home/priyanshagrawal/web2py/applications/login/&#x27;, &#x27;/home/priyanshagrawal/web2py/applications/project/&#x27;, &#x27;/home/priyanshagrawal/web2py/applications/admin/&#x27;])</div></td></tr><tr><td style="font-weight:bold;vertical-align:top;">applications_parent</td><td style="vertical-align:top;">:</td><td><div>/home/priyanshagrawal/web2py</div></td></tr><tr><td style="font-weight:bold;vertical-align:top;">cmd_args</td><td style="vertical-align:top;">:</td><td><div><table></table></div></td></tr><tr><td style="font-weight:bold;vertical-align:top;">cmd_options</td><td style="vertical-align:top;">:</td><td><div>&lt;Values at 0x7f622dec48c0: {&#x27;verbose&#x27;: False, &#x27;ip&#x27;: &#x27;127.0.0.1&#x27;, &#x27;debuglevel&#x27;: 30, &#x27;with_scheduler&#x27;: False, &#x27;shutdown_timeout&#x27;: 5, &#x27;taskbar&#x27;: False, &#x27;with_coverage&#x27;: False, &#x27;pid_filename&#x27;: &#x27;httpserver.pid&#x27;, &#x27;maxthreads&#x27;: None, &#x27;softcron&#x27;: False, &#x27;server_name&#x27;: &#x27;localhost.localdomain&#x27;, &#x27;bpython&#x27;: False, &#x27;nogui&#x27;: False, &#x27;port&#x27;: 8000, &#x27;print_errors&#x27;: False, &#x27;extcron&#x27;: False, &#x27;runcron&#x27;: False, &#x27;run_system_tests&#x27;: False, &#x27;test&#x27;: None, &#x27;folder&#x27;: &#x27;/home/priyanshagrawal/web2py&#x27;, &#x27;config&#x27;: &#x27;&#x27;, &#x27;minthreads&#x27;: None, &#x27;shell&#x27;: None, &#x27;run&#x27;: &#x27;&#x27;, &#x27;log_filename&#x27;: &#x27;httpserver.log&#x27;, &#x27;profiler_dir&#x27;: None, &#x27;args&#x27;: [&#x27;&#x27;], &#x27;socket_timeout&#x27;: 5, &#x27;ssl_ca_certificate&#x27;: None, &#x27;scheduler&#x27;: None, &#x27;interfaces&#x27;: None, &#x27;ssl_private_key&#x27;: &#x27;&#x27;, &#x27;gae&#x27;: None, &#x27;password&#x27;: &#x27;******&#x27;, &#x27;request_queue_size&#x27;: 5, &#x27;ssl_certificate&#x27;: &#x27;&#x27;, &#x27;cronjob&#x27;: False, &#x27;numthreads&#x27;: None, &#x27;quiet&#x27;: False, &#x27;import_models&#x27;: False, &#x27;timeout&#x27;: 10, &#x27;plain&#x27;: False, &#x27;nobanner&#x27;: False}&gt;</div></td></tr><tr><td style="font-weight:bold;vertical-align:top;">db_sessions</td><td style="vertical-align:top;">:</td><td><div>set([])</div></td></tr><tr><td style="font-weight:bold;vertical-align:top;">debugging</td><td style="vertical-align:top;">:</td><td><div>True</div></td></tr><tr><td style="font-weight:bold;vertical-align:top;">gluon_parent</td><td style="vertical-align:top;">:</td><td><div>/home/priyanshagrawal/web2py</div></td></tr><tr><td style="font-weight:bold;vertical-align:top;">is_jython</td><td style="vertical-align:top;">:</td><td><div>False</div></td></tr><tr><td style="font-weight:bold;vertical-align:top;">is_pypy</td><td style="vertical-align:top;">:</td><td><div>False</div></td></tr><tr><td style="font-weight:bold;vertical-align:top;">is_source</td><td style="vertical-align:top;">:</td><td><div>True</div></td></tr><tr><td style="font-weight:bold;vertical-align:top;">local_hosts</td><td style="vertical-align:top;">:</td><td><div><table><tr><td><div>::1</div></td></tr><tr><td><div>::ffff:127.0.0.1</div></td></tr><tr><td><div>127.0.0.1</div></td></tr><tr><td><div>localhost.localdomain</div></td></tr></table></div></td></tr><tr><td style="font-weight:bold;vertical-align:top;">web2py_version</td><td style="vertical-align:top;">:</td><td><div>2.14.3-stable+timestamp.2016.03.26.23.02.02</div></td></tr></table></div></td></tr><tr><td style="font-weight:bold;vertical-align:top;">is_https</td><td style="vertical-align:top;">:</td><td><div>False</div></td></tr><tr><td style="font-weight:bold;vertical-align:top;">is_local</td><td style="vertical-align:top;">:</td><td><div>True</div></td></tr><tr><td style="font-weight:bold;vertical-align:top;">is_restful</td><td style="vertical-align:top;">:</td><td><div>False</div></td></tr><tr><td style="font-weight:bold;vertical-align:top;">is_scheduler</td><td style="vertical-align:top;">:</td><td><div>False</div></td></tr><tr><td style="font-weight:bold;vertical-align:top;">is_shell</td><td style="vertical-align:top;">:</td><td><div>False</div></td></tr><tr><td style="font-weight:bold;vertical-align:top;">now</td><td style="vertical-align:top;">:</td><td><div>datetime.datetime(2016, 4, 19, 15, 16, 21, 979731)</div></td></tr><tr><td style="font-weight:bold;vertical-align:top;">raw_args</td><td style="vertical-align:top;">:</td><td><div>2</div></td></tr><tr><td style="font-weight:bold;vertical-align:top;">raw_extension</td><td style="vertical-align:top;">:</td><td><div>None</div></td></tr><tr><td style="font-weight:bold;vertical-align:top;">url</td><td style="vertical-align:top;">:</td><td><div>/project/default/main/2</div></td></tr><tr><td style="font-weight:bold;vertical-align:top;">utcnow</td><td style="vertical-align:top;">:</td><td><div>datetime.datetime(2016, 4, 19, 9, 46, 21, 979766)</div></td></tr><tr><td style="font-weight:bold;vertical-align:top;">wsgi</td><td style="vertical-align:top;">:</td><td><div>&lt;gluon.main.LazyWSGI object at 0x7f61fc175bd0&gt;</div></td></tr></table></div>'
tRp58
sS'frames'
p59
(lp60
(dp61
S'file'
p62
S'/home/priyanshagrawal/web2py/gluon/restricted.py'
p63
sS'dump'
p64
(dp65
S'environment'
p66
S"{'A': <class 'gluon.html.A'>, 'ANY_OF': <class 'gluon.validators.ANY_OF'>, 'ASSIGNJS': <function ASSIGNJS>, 'AppConfig': <function AppConfig>, 'Auth': <class 'gluon.tools.Auth'>, 'B': <class 'gluon.html.B'>, 'BEAUTIFY': <class 'gluon.html.BEAUTIFY'>, 'BODY': <class 'gluon.html.BODY'>, 'BR': <class 'gluon.html.BR'>, 'BUTTON': <class 'gluon.html.BUTTON'>, ...}"
p67
sS'ccode'
p68
S'<code object <module> at 0x7f61f748ef30, file "/...cations/project/views/default/main.html", line 1>'
p69
ssS'lnum'
p70
I227
sS'lines'
p71
(dp72
I224
S'            ccode = code'
p73
sI225
S'        else:'
p74
sI226
S'            ccode = compile2(code, layer)'
p75
sI227
S'        exec ccode in environment'
p76
sI228
S'    except HTTP:'
p77
sI229
S'        raise'
p78
sI230
S'    except RestrictedError:'
p79
sI231
S'        # do not encapsulate (obfuscate) the original RestrictedError'
p80
sI222
S'    try:'
p81
sI223
S'        if isinstance(code, types.CodeType):'
p82
ssS'call'
p83
S'(code=\'response.write(\\\'<!DOCTYPE html>\\\\n<!--[if (gt IE ...(\\\'"></script>\\\\n</body>\\\\n</html>\\\\n\\\', escape=False)\', environment={\'A\': <class \'gluon.html.A\'>, \'ANY_OF\': <class \'gluon.validators.ANY_OF\'>, \'ASSIGNJS\': <function ASSIGNJS>, \'AppConfig\': <function AppConfig>, \'Auth\': <class \'gluon.tools.Auth\'>, \'B\': <class \'gluon.html.B\'>, \'BEAUTIFY\': <class \'gluon.html.BEAUTIFY\'>, \'BODY\': <class \'gluon.html.BODY\'>, \'BR\': <class \'gluon.html.BR\'>, \'BUTTON\': <class \'gluon.html.BUTTON\'>, ...}, layer=\'/home/priyanshagrawal/web2py/applications/project/views/default/main.html\')'
p84
sS'func'
p85
S'restricted'
p86
sa(dp87
g62
S'/home/priyanshagrawal/web2py/applications/project/views/default/main.html'
p88
sg64
(dp89
S'hr'
p90
S'undefined'
p91
sS'commid'
p92
g91
sS'element'
p93
g91
sS'var'
p94
g91
sS'return_data'
p95
g91
sS'document'
p96
g91
ssg70
I83
sg71
(dp97
I74
S"    response.write('\\n\\t\\t</div>\\n\\t\\t', escape=False)"
p98
sI75
S'    pass'
p99
sI76
S'response.write(\'\\n\\n\\t\\t<div class="\', escape=False)'
p100
sI77
S'response.write(middle_column)'
p101
sI78
S'response.write(\'">\\n\\t\\t\\t\', escape=False)'
p102
sI79
S"response.write('\\n\\t\\t\\t', escape=False)"
p103
sI80
S'response.write(\'\\n<link href="\', escape=False)'
p104
sI81
S"response.write(URL('static','css/main.css'))"
p105
sI82
S'response.write(\'" rel="stylesheet">\\n<script type="text/javascript">\\nfunction pop(div) {\\n\\tdocument.getElementById(div).style.display = \\\'block\\\';\\n}\\nfunction hide(div) {\\n\\tdocument.getElementById(div).style.display = \\\'none\\\';\\n}\\ndocument.onkeydown = function(evt) {\\n\\tevt = evt || window.event;\\n\\tif (evt.keyCode == 27) {\\n\\t\\thide(\\\'create_task\\\');\\n\\t}\\n};\\n</script>\\n\\n<select>\\n    \', escape=False)'
p106
sI83
S'if auth_user.id>0:'
p107
sI84
S'    response.write(\' \\n    \\n    <option value="volvo">\', escape=False)'
p108
sI85
S'    response.write(auth_user.first_name)'
p109
sI86
S"    response.write('</option>\\n      ', escape=False)"
p110
sI87
S'    pass'
p111
sI88
S'response.write(\'\\n</select>\\n\\n\\n\\n<div id="set">\\n\\t<button onClick="pop(\\\'create_task\\\')">Add a Task</button>\\n</div>\\n<div id=\\\'create_task\\\'>\\n\\t\', escape=False)'
p112
sI89
S'response.write(form)'
p113
sI90
S'response.write(\'\\n\\t<!--p>Title</p><input class=\\\'inputs\\\' id="name_param" name="name"/><br>\\n\\t <input class=\\\'inputs\\\' id="age_param" name="age"/-->\\n</div>\\n\\n<ul class="hello1">\\n\\t\', escape=False)'
p114
sI91
S'for task in tasks:'
p115
sI92
S"    response.write('\\n\\t', escape=False)"
p116
sI93
S'    i=0'
p117
ssg83
S'()'
p118
sg85
S'<module>'
p119
sasS'pyver'
p120
S'Python 2.7.10: /usr/bin/python (prefix: /usr)'
p121
sS'session'
p122
g57
(S's\x1a\n\x00\x00<div><table><tr><td style="font-weight:bold;vertical-align:top;">auth</td><td style="vertical-align:top;">:</td><td><div><table><tr><td style="font-weight:bold;vertical-align:top;">expiration</td><td style="vertical-align:top;">:</td><td><div>3600</div></td></tr><tr><td style="font-weight:bold;vertical-align:top;">hmac_key</td><td style="vertical-align:top;">:</td><td><div>d307ae56-085f-46c7-81c5-64d16391ed8d</div></td></tr><tr><td style="font-weight:bold;vertical-align:top;">last_visit</td><td style="vertical-align:top;">:</td><td><div>datetime.datetime(2016, 4, 19, 15, 10, 36, 231328)</div></td></tr><tr><td style="font-weight:bold;vertical-align:top;">remember_me</td><td style="vertical-align:top;">:</td><td><div>False</div></td></tr><tr><td style="font-weight:bold;vertical-align:top;">user</td><td style="vertical-align:top;">:</td><td><div><table><tr><td style="font-weight:bold;vertical-align:top;">email</td><td style="vertical-align:top;">:</td><td><div>priyanshagarwal02may@gmail.com</div></td></tr><tr><td style="font-weight:bold;vertical-align:top;">first_name</td><td style="vertical-align:top;">:</td><td><div>priyansh</div></td></tr><tr><td style="font-weight:bold;vertical-align:top;">id</td><td style="vertical-align:top;">:</td><td><div>3L</div></td></tr><tr><td style="font-weight:bold;vertical-align:top;">last_name</td><td style="vertical-align:top;">:</td><td><div>agrawal</div></td></tr><tr><td style="font-weight:bold;vertical-align:top;">registration_id</td><td style="vertical-align:top;">:</td><td><div></div></td></tr><tr><td style="font-weight:bold;vertical-align:top;">registration_key</td><td style="vertical-align:top;">:</td><td><div></div></td></tr><tr><td style="font-weight:bold;vertical-align:top;">reset_password_key</td><td style="vertical-align:top;">:</td><td><div></div></td></tr></table></div></td></tr><tr><td style="font-weight:bold;vertical-align:top;">user_groups</td><td style="vertical-align:top;">:</td><td><div><table><tr><td style="font-weight:bold;vertical-align:top;">3</td><td style="vertical-align:top;">:</td><td><div>user_3</div></td></tr></table></div></td></tr></table></div></td></tr><tr><td style="font-weight:bold;vertical-align:top;">flash</td><td style="vertical-align:top;">:</td><td><div>None</div></td></tr><tr><td style="font-weight:bold;vertical-align:top;">last_orderby</td><td style="vertical-align:top;">:</td><td><div>None</div></td></tr><tr><td style="font-weight:bold;vertical-align:top;">last_query</td><td style="vertical-align:top;">:</td><td><div>db.auth_user.id&gt;0</div></td></tr></table></div>'
tRp123
sS'etype'
p124
S"<type 'exceptions.NameError'>"
p125
sS'date'
p126
S'Tue Apr 19 15:16:22 2016'
p127
sS'response'
p128
g57
(S's\xf7\x1e\x00\x00<div><table><tr><td style="font-weight:bold;vertical-align:top;">body</td><td style="vertical-align:top;">:</td><td><div>&lt;cStringIO.StringO object at 0x7f622decedf8&gt;</div></td></tr><tr><td style="font-weight:bold;vertical-align:top;">cookies</td><td style="vertical-align:top;">:</td><td><div><table><tr><td style="font-weight:bold;vertical-align:top;">session_id_project</td><td style="vertical-align:top;">:</td><td><div>127.0.0.1-573b9481-3f70-457a-81bf-4e8d95c6b4a8<table><tr><td style="font-weight:bold;vertical-align:top;">comment</td><td style="vertical-align:top;">:</td><td><div></div></td></tr><tr><td style="font-weight:bold;vertical-align:top;">domain</td><td style="vertical-align:top;">:</td><td><div></div></td></tr><tr><td style="font-weight:bold;vertical-align:top;">expires</td><td style="vertical-align:top;">:</td><td><div></div></td></tr><tr><td style="font-weight:bold;vertical-align:top;">httponly</td><td style="vertical-align:top;">:</td><td><div></div></td></tr><tr><td style="font-weight:bold;vertical-align:top;">max-age</td><td style="vertical-align:top;">:</td><td><div></div></td></tr><tr><td style="font-weight:bold;vertical-align:top;">path</td><td style="vertical-align:top;">:</td><td><div>/</div></td></tr><tr><td style="font-weight:bold;vertical-align:top;">secure</td><td style="vertical-align:top;">:</td><td><div></div></td></tr><tr><td style="font-weight:bold;vertical-align:top;">version</td><td style="vertical-align:top;">:</td><td><div></div></td></tr></table></div></td></tr></table></div></td></tr><tr><td style="font-weight:bold;vertical-align:top;">delimiters</td><td style="vertical-align:top;">:</td><td><div><table><tr><td><div>{{</div></td></tr><tr><td><div>}}</div></td></tr></table></div></td></tr><tr><td style="font-weight:bold;vertical-align:top;">files</td><td style="vertical-align:top;">:</td><td><div><table><tr><td><div>/project/static/js/jquery.js</div></td></tr><tr><td><div>/project/static/css/calendar.css</div></td></tr><tr><td><div>/project/static/js/calendar.js</div></td></tr><tr><td><div>/project/static/js/web2py.js</div></td></tr></table></div></td></tr><tr><td style="font-weight:bold;vertical-align:top;">flash</td><td style="vertical-align:top;">:</td><td><div></div></td></tr><tr><td style="font-weight:bold;vertical-align:top;">form_label_separator</td><td style="vertical-align:top;">:</td><td><div></div></td></tr><tr><td style="font-weight:bold;vertical-align:top;">formstyle</td><td style="vertical-align:top;">:</td><td><div>bootstrap3_inline</div></td></tr><tr><td style="font-weight:bold;vertical-align:top;">generic_patterns</td><td style="vertical-align:top;">:</td><td><div><table><tr><td><div>*</div></td></tr></table></div></td></tr><tr><td style="font-weight:bold;vertical-align:top;">google_analytics_id</td><td style="vertical-align:top;">:</td><td><div>None</div></td></tr><tr><td style="font-weight:bold;vertical-align:top;">headers</td><td style="vertical-align:top;">:</td><td><div><table><tr><td style="font-weight:bold;vertical-align:top;">X-Powered-By</td><td style="vertical-align:top;">:</td><td><div>web2py</div></td></tr></table></div></td></tr><tr><td style="font-weight:bold;vertical-align:top;">logo</td><td style="vertical-align:top;">:</td><td><div><a class="navbar-brand" href="http://127.0.0.1:8000/login/default/start" id="web2py-logo"><b>Project Chaperon</b>&nbsp;</a></div></td></tr><tr><td style="font-weight:bold;vertical-align:top;">menu</td><td style="vertical-align:top;">:</td><td><div><table><tr><td><div><table><tr><td><div>Home</div></td></tr><tr><td><div>False</div></td></tr><tr><td><div>/project/default/index</div></td></tr></table></div></td></tr><tr><td><div><table><tr><td><div>MY sites</div></td></tr><tr><td><div>False</div></td></tr><tr><td><div>/project/default/site</div></td></tr></table></div></td></tr></table></div></td></tr><tr><td style="font-weight:bold;vertical-align:top;">meta</td><td style="vertical-align:top;">:</td><td><div><table><tr><td style="font-weight:bold;vertical-align:top;">author</td><td style="vertical-align:top;">:</td><td><div>Your Name &lt;you@example.com&gt;</div></td></tr><tr><td style="font-weight:bold;vertical-align:top;">description</td><td style="vertical-align:top;">:</td><td><div>a cool new app</div></td></tr><tr><td style="font-weight:bold;vertical-align:top;">generator</td><td style="vertical-align:top;">:</td><td><div>Web2py Web Framework</div></td></tr><tr><td style="font-weight:bold;vertical-align:top;">keywords</td><td style="vertical-align:top;">:</td><td><div><table><tr><td><div>web2py</div></td></tr><tr><td><div>python</div></td></tr><tr><td><div>framework</div></td></tr></table></div></td></tr></table></div></td></tr><tr><td style="font-weight:bold;vertical-align:top;">models_to_run</td><td style="vertical-align:top;">:</td><td><div><table><tr><td><div>^\\w+\\.py$</div></td></tr><tr><td><div>^default/\\w+\\.py$</div></td></tr><tr><td><div>^default/main/\\w+\\.py$</div></td></tr></table></div></td></tr><tr><td style="font-weight:bold;vertical-align:top;">postprocessing</td><td style="vertical-align:top;">:</td><td><div><table></table></div></td></tr><tr><td style="font-weight:bold;vertical-align:top;">session_client</td><td style="vertical-align:top;">:</td><td><div>127.0.0.1</div></td></tr><tr><td style="font-weight:bold;vertical-align:top;">session_cookie_compression_level</td><td style="vertical-align:top;">:</td><td><div>None</div></td></tr><tr><td style="font-weight:bold;vertical-align:top;">session_cookie_expires</td><td style="vertical-align:top;">:</td><td><div>None</div></td></tr><tr><td style="font-weight:bold;vertical-align:top;">session_data_name</td><td style="vertical-align:top;">:</td><td><div>session_data_project</div></td></tr><tr><td style="font-weight:bold;vertical-align:top;">session_file</td><td style="vertical-align:top;">:</td><td><div>&lt;open file &#x27;/home/priyanshagrawal/web2py/applications/project/sessions/1e3/026/127.0.0.1-573b9481-3f70-457a-81bf-4e8d95c6b4a8&#x27;, mode &#x27;rb+&#x27; at 0x7f61fc392810&gt;</div></td></tr><tr><td style="font-weight:bold;vertical-align:top;">session_filename</td><td style="vertical-align:top;">:</td><td><div>/home/priyanshagrawal/web2py/applications/project/sessions/127.0.0.1-573b9481-3f70-457a-81bf-4e8d95c6b4a8</div></td></tr><tr><td style="font-weight:bold;vertical-align:top;">session_hash</td><td style="vertical-align:top;">:</td><td><div>ba80bb52d423608273b3f0334426a427</div></td></tr><tr><td style="font-weight:bold;vertical-align:top;">session_id</td><td style="vertical-align:top;">:</td><td><div>127.0.0.1-573b9481-3f70-457a-81bf-4e8d95c6b4a8</div></td></tr><tr><td style="font-weight:bold;vertical-align:top;">session_id_name</td><td style="vertical-align:top;">:</td><td><div>session_id_project</div></td></tr><tr><td style="font-weight:bold;vertical-align:top;">session_locked</td><td style="vertical-align:top;">:</td><td><div>True</div></td></tr><tr><td style="font-weight:bold;vertical-align:top;">session_masterapp</td><td style="vertical-align:top;">:</td><td><div>project</div></td></tr><tr><td style="font-weight:bold;vertical-align:top;">session_new</td><td style="vertical-align:top;">:</td><td><div>False</div></td></tr><tr><td style="font-weight:bold;vertical-align:top;">session_storage_type</td><td style="vertical-align:top;">:</td><td><div>file</div></td></tr><tr><td style="font-weight:bold;vertical-align:top;">status</td><td style="vertical-align:top;">:</td><td><div>200</div></td></tr><tr><td style="font-weight:bold;vertical-align:top;">subtitle</td><td style="vertical-align:top;">:</td><td><div></div></td></tr><tr><td style="font-weight:bold;vertical-align:top;">title</td><td style="vertical-align:top;">:</td><td><div>Project</div></td></tr><tr><td style="font-weight:bold;vertical-align:top;">view</td><td style="vertical-align:top;">:</td><td><div>default/main.html</div></td></tr></table></div>'
tRp129
sS'locals'
p130
(dp131
S'Service'
p132
S"<class 'gluon.tools.Service'>"
p133
sS'OBJECT'
p134
S"<class 'gluon.html.OBJECT'>"
p135
sS'SQLDB'
p136
S"<class 'pydal.base.DAL'>"
p137
sg122
S"<Storage {'last_query': 'db.auth_user.id>0', '_f...ord]': ['c9f0f665-488d-4a7b-85d6-64fb05708fc1']}>"
p138
sS'LINK'
p139
S"<class 'gluon.html.LINK'>"
p140
sS'BR'
p141
S"<class 'gluon.html.BR'>"
p142
sS'local_import'
p143
S'<function <lambda>>'
p144
sS'OPTGROUP'
p145
S"<class 'gluon.html.OPTGROUP'>"
p146
sS'__package__'
p147
S'None'
p148
sS'PRE'
p149
S"<class 'gluon.html.PRE'>"
p150
sS'IS_INT_IN_RANGE'
p151
S"<class 'gluon.validators.IS_INT_IN_RANGE'>"
p152
sS'left_sidebar_enabled'
p153
S'False'
p154
sS'IS_LOWER'
p155
S"<class 'gluon.validators.IS_LOWER'>"
p156
sS'IS_STRONG'
p157
S"<class 'gluon.validators.IS_STRONG'>"
p158
sS'cache'
p159
S'<gluon.cache.Cache object>'
p160
sS'IS_IN_DB'
p161
S"<class 'gluon.validators.IS_IN_DB'>"
p162
sS'TAG'
p163
S'<gluon.html.__TAG__ object>'
p164
sS'SQLField'
p165
S"<class 'pydal.objects.Field'>"
p166
sS'mail'
p167
S'<gluon.tools.Mail object>'
p168
sS'BODY'
p169
S"<class 'gluon.html.BODY'>"
p170
sS'IS_DATE_IN_RANGE'
p171
S"<class 'gluon.validators.IS_DATE_IN_RANGE'>"
p172
sS'subtasks'
p173
S'<Rows (7)>'
p174
sS'IFRAME'
p175
S"<class 'gluon.html.IFRAME'>"
p176
sS'URL'
p177
S'<function URL>'
p178
sS'__file__'
p179
S"'/home/priyanshagrawal/web2py/applications/project/views/default/main.html'"
p180
sS'db'
p181
S'<DAL uri="sqlite://storage.sqlite">'
p182
sS'auth'
p183
S'<gluon.tools.Auth object>'
p184
sS'P'
S"<class 'gluon.html.P'>"
p185
sS'TFOOT'
p186
S"<class 'gluon.html.TFOOT'>"
p187
sS'XHTML'
p188
S"<class 'gluon.html.XHTML'>"
p189
sS'datetime'
p190
S"<module 'datetime' from '/usr/lib64/python2.7/lib-dynload/datetime.so'>"
p191
sS'ON'
p192
S'True'
p193
sS'OL'
p194
S"<class 'gluon.html.OL'>"
p195
sS'TEXTAREA'
p196
S"<class 'gluon.html.TEXTAREA'>"
p197
sS'MENU'
p198
S"<class 'gluon.html.MENU'>"
p199
sS'IS_IMAGE'
p200
S"<class 'gluon.validators.IS_IMAGE'>"
p201
sS'EM'
p202
S"<class 'gluon.html.EM'>"
p203
sS'CODE'
p204
S"<class 'gluon.html.CODE'>"
p205
sS'HTTP'
p206
S"<class 'gluon.http.HTTP'>"
p207
sS'HR'
p208
S"<class 'gluon.html.HR'>"
p209
sS'IS_DATETIME'
p210
S"<class 'gluon.validators.IS_DATETIME'>"
p211
sS'STYLE'
p212
S"<class 'gluon.html.STYLE'>"
p213
sS'LABEL'
p214
S"<class 'gluon.html.LABEL'>"
p215
sS'CLEANUP'
p216
S"<class 'gluon.validators.CLEANUP'>"
p217
sS'plugins'
p218
S'<gluon.tools.PluginManager object>'
p219
sS'SELECT'
p220
S"<class 'gluon.html.SELECT'>"
p221
sS'CENTER'
p222
S"<class 'gluon.html.CENTER'>"
p223
sS'prettydate'
p224
S'<function prettydate>'
p225
sS'Crud'
p226
S"<class 'gluon.tools.Crud'>"
p227
sS'Auth'
p228
S"<class 'gluon.tools.Auth'>"
p229
sS'COL'
p230
S"<class 'gluon.html.COL'>"
p231
sS'current'
p232
S'<thread._local object>'
p233
sS'__builtins__'
p234
S"{'ArithmeticError': <type 'exceptions.ArithmeticError'>, 'AssertionError': <type 'exceptions.AssertionError'>, 'AttributeError': <type 'exceptions.AttributeError'>, 'BaseException': <type 'exceptions.BaseException'>, 'BufferError': <type 'exceptions.BufferError'>, 'BytesWarning': <type 'exceptions.BytesWarning'>, 'DeprecationWarning': <type 'exceptions.DeprecationWarning'>, 'EOFError': <type 'exceptions.EOFError'>, 'Ellipsis': Ellipsis, 'EnvironmentError': <type 'exceptions.EnvironmentError'>, ...}"
p235
sS'HTML'
p236
S"<class 'gluon.html.HTML'>"
p237
sS'SQLFORM'
p238
S"<class 'gluon.sqlhtml.SQLFORM'>"
p239
sS'LOAD'
p240
S'<function LOAD>'
p241
sS'redirect'
p242
S'<function redirect>'
p243
sS'FIELDSET'
p244
S"<class 'gluon.html.FIELDSET'>"
p245
sS'IS_EQUAL_TO'
p246
S"<class 'gluon.validators.IS_EQUAL_TO'>"
p247
sS'embed64'
p248
S'<function embed64>'
p249
sS'IS_LIST_OF'
p250
S"<class 'gluon.validators.IS_LIST_OF'>"
p251
sS'INPUT'
p252
S"<class 'gluon.html.INPUT'>"
p253
sS'EMBED'
p254
S"<class 'gluon.html.EMBED'>"
p255
sS'myconf'
p256
S"{'forms': {'formstyle': 'bootstrap3_inline', 'se...': {'names': 'localhost:*, 127.0.0.1:*, *:*, *'}}"
p257
sS'H2'
p258
S"<class 'gluon.html.H2'>"
p259
sS'H3'
p260
S"<class 'gluon.html.H3'>"
p261
sS'AppConfig'
p262
S'<function AppConfig>'
p263
sS'H1'
p264
S"<class 'gluon.html.H1'>"
p265
sS'H6'
p266
S"<class 'gluon.html.H6'>"
p267
sS'H4'
p268
S"<class 'gluon.html.H4'>"
p269
sS'H5'
p270
S"<class 'gluon.html.H5'>"
p271
sS'UL'
p272
S"<class 'gluon.html.UL'>"
p273
sS'IS_UPPER'
p274
S"<class 'gluon.validators.IS_UPPER'>"
p275
sS'xmlescape'
p276
S'<function xmlescape>'
p277
sS'IS_TIME'
p278
S"<class 'gluon.validators.IS_TIME'>"
p279
sS'tasks'
p280
S'<Rows (5)>'
p281
sS'OPTION'
p282
S"<class 'gluon.html.OPTION'>"
p283
sS'TITLE'
p284
S"<class 'gluon.html.TITLE'>"
p285
sS'CRYPT'
p286
S"<class 'gluon.validators.CRYPT'>"
p287
sS'IS_EMPTY_OR'
p288
S"<class 'gluon.validators.IS_EMPTY_OR'>"
p289
sS'MARKMIN'
p290
S"<class 'gluon.html.MARKMIN'>"
p291
sS'__name__'
p292
S"'__restricted__'"
p293
sS'STRONG'
p294
S"<class 'gluon.html.STRONG'>"
p295
sS'mc2'
p296
S"'col-md-6'"
p297
sS'mc1'
p298
S"'col-md-9'"
p299
sS'mc0'
p300
S"'col-md-12'"
p301
sS'service'
p302
S'<gluon.tools.Service object>'
p303
sS'SCRIPT'
p304
S"<class 'gluon.html.SCRIPT'>"
p305
sS'TABLE'
p306
S"<class 'gluon.html.TABLE'>"
p307
sS'next_login'
p308
S'<function next_login>'
p309
sS'IS_IPV4'
p310
S"<class 'gluon.validators.IS_IPV4'>"
p311
sS'IS_LENGTH'
p312
S"<class 'gluon.validators.IS_LENGTH'>"
p313
sS'IS_IPV6'
p314
S"<class 'gluon.validators.IS_IPV6'>"
p315
sS'XML'
p316
S"<class 'gluon.html.XML'>"
p317
sS'B'
S"<class 'gluon.html.B'>"
p318
sS'IMG'
p319
S"<class 'gluon.html.IMG'>"
p320
sS'SQLTABLE'
p321
S"<class 'gluon.sqlhtml.SQLTABLE'>"
p322
sS'IS_MATCH'
p323
S"<class 'gluon.validators.IS_MATCH'>"
p324
sS'IS_ALPHANUMERIC'
p325
S"<class 'gluon.validators.IS_ALPHANUMERIC'>"
p326
sS'SPAN'
p327
S"<class 'gluon.html.SPAN'>"
p328
sS'IS_JSON'
p329
S"<class 'gluon.validators.IS_JSON'>"
p330
sS'IS_IPADDRESS'
p331
S"<class 'gluon.validators.IS_IPADDRESS'>"
p332
sS'IS_SLUG'
p333
S"<class 'gluon.validators.IS_SLUG'>"
p334
sS'project'
p335
S"<Row {'task': <Set (task.pid = 2)>, 'modified_by...None, 'description': 'second  Project Of life!'}>"
p336
sS'BEAUTIFY'
p337
S"<class 'gluon.html.BEAUTIFY'>"
p338
sS'META'
p339
S"<class 'gluon.html.META'>"
p340
sS'BUTTON'
p341
S"<class 'gluon.html.BUTTON'>"
p342
sS'IS_DATE'
p343
S"<class 'gluon.validators.IS_DATE'>"
p344
sS'IS_EMAIL'
p345
S"<class 'gluon.validators.IS_EMAIL'>"
p346
sS'middle_column'
p347
S"'col-md-12'"
p348
sS'IS_NOT_EMPTY'
p349
S"<class 'gluon.validators.IS_NOT_EMPTY'>"
p350
sS'IS_FLOAT_IN_RANGE'
p351
S"<class 'gluon.validators.IS_FLOAT_IN_RANGE'>"
p352
sS'TBODY'
p353
S"<class 'gluon.html.TBODY'>"
p354
sS'CAT'
p355
S"<class 'gluon.html.CAT'>"
p356
sS'Field'
p357
S"<class 'pydal.objects.Field'>"
p358
sS'IS_LIST_OF_EMAILS'
p359
S"<class 'gluon.validators.IS_LIST_OF_EMAILS'>"
p360
sS'DIV'
p361
S"<class 'gluon.html.DIV'>"
p362
sS'LEGEND'
p363
S"<class 'gluon.html.LEGEND'>"
p364
sS'form'
p365
S'<gluon.sqlhtml.SQLFORM object>'
p366
sS'COLGROUP'
p367
S"<class 'gluon.html.COLGROUP'>"
p368
sS'DAL'
p369
S"<class 'pydal.base.DAL'>"
p370
sS'TT'
p371
S"<class 'gluon.html.TT'>"
p372
sS'TR'
p373
S"<class 'gluon.html.TR'>"
p374
sS'LI'
p375
S"<class 'gluon.html.LI'>"
p376
sS'right_sidebar_enabled'
p377
g154
sS'TH'
p378
S"<class 'gluon.html.TH'>"
p379
sS'TD'
p380
S"<class 'gluon.html.TD'>"
p381
sS'PluginManager'
p382
S"<class 'gluon.tools.PluginManager'>"
p383
sS'IS_URL'
p384
S"<class 'gluon.validators.IS_URL'>"
p385
sS'A'
S"<class 'gluon.html.A'>"
p386
sS'HEAD'
p387
S"<class 'gluon.html.HEAD'>"
p388
sS'IS_DATETIME_IN_RANGE'
p389
S"<class 'gluon.validators.IS_DATETIME_IN_RANGE'>"
p390
sS'FORM'
p391
S"<class 'gluon.html.FORM'>"
p392
sS'I'
S"<class 'gluon.html.I'>"
p393
sS'crud'
p394
S'<gluon.tools.Crud object>'
p395
sS'IS_NOT_IN_DB'
p396
S"<class 'gluon.validators.IS_NOT_IN_DB'>"
p397
sg128
S"<Storage {'body': <cStringIO.StringO object at 0...at 0x7f61f7494050>, 'view': 'default/main.html'}>"
p398
sS'THEAD'
p399
S"<class 'gluon.html.THEAD'>"
p400
sS'ANY_OF'
p401
S"<class 'gluon.validators.ANY_OF'>"
p402
sS'IS_NULL_OR'
p403
S"<class 'gluon.validators.IS_EMPTY_OR'>"
p404
sg56
S"<Storage {'_vars': None, 'function': 'main', 'co...e/priyanshagrawal/web2py/applications/project/'}>"
p405
sS'IS_EXPR'
p406
S"<class 'gluon.validators.IS_EXPR'>"
p407
sS'T'
S'<gluon.languages.translator object>'
p408
sS'send_mail'
p409
S'<function send_mail>'
p410
sS'IS_IN_SET'
p411
S"<class 'gluon.validators.IS_IN_SET'>"
p412
sS'week'
p413
S'datetime.timedelta(7)'
p414
sS'IS_UPLOAD_FILENAME'
p415
S"<class 'gluon.validators.IS_UPLOAD_FILENAME'>"
p416
sS'ASSIGNJS'
p417
S'<function ASSIGNJS>'
p418
sS'IS_DECIMAL_IN_RANGE'
p419
S"<class 'gluon.validators.IS_DECIMAL_IN_RANGE'>"
p420
sssS'traceback'
p421
S'Traceback (most recent call last):\n  File "/home/priyanshagrawal/web2py/gluon/restricted.py", line 227, in restricted\n    exec ccode in environment\n  File "/home/priyanshagrawal/web2py/applications/project/views/default/main.html", line 83, in <module>\n    if(hr.readyState == 4 && hr.status == 200) {\nNameError: name \'auth_user\' is not defined\n'
p422
s.